; Function Attrs: mustprogress nofree norecurse nosync nounwind willreturn memory(read, inaccessiblemem: none) uwtable
define dso_local noundef zeroext i1 @_ZNK5clang20TemplateTypeParmDecl15isParameterPackEv(ptr noundef nonnull readonly align 8 captures(none) dereferenceable(80) %0) local_unnamed_addr #3 align 2 {
  %2 = getelementptr inbounds nuw i8, ptr %0, i64 48
  %3 = load ptr, ptr %2, align 8
  %4 = getelementptr inbounds nuw i8, ptr %3, i64 8
  %.sroa.0.0.copyload.i.i.i.i = load i64, ptr %4, align 8
  %5 = and i64 %.sroa.0.0.copyload.i.i.i.i, -16
  %6 = inttoptr i64 %5 to ptr
  %7 = load ptr, ptr %6, align 16
  %8 = getelementptr inbounds nuw i8, ptr %7, i64 16
  %9 = load i64, ptr %8, align 16
  %10 = and i64 %9, 140737488355328
  %11 = icmp ne i64 %10, 0
  ret i1 %11
}